target datalayout = "e-m:e-p270:32:32-p271:32:32-p272:64:64-i64:64-i128:128-f80:128-n8:16:32:64-S128"
target triple = "x86_64-pc-linux-gnu"

%struct.CMS_ContentInfo_st = type { ptr, %union.anon, %struct.CMS_CTX_st }
%union.anon = type { ptr }
%struct.CMS_CTX_st = type { ptr, ptr }
%struct.CMS_SignedData_st = type { i32, ptr, ptr, ptr, ptr, ptr }

; Function Attrs: nounwind uwtable
define i32 @SMIME_write_CMS(ptr noundef %0, ptr noundef %1, ptr noundef %2, i32 noundef %3) #0 {
  %5 = alloca ptr, align 8
  %6 = alloca ptr, align 8
  %7 = alloca ptr, align 8
  %8 = alloca i32, align 4
  %9 = alloca ptr, align 8
  %10 = alloca i32, align 4
  %11 = alloca i32, align 4
  %12 = alloca ptr, align 8
  store ptr %0, ptr %5, align 8, !tbaa !21
  store ptr %1, ptr %6, align 8, !tbaa !8
  store ptr %2, ptr %7, align 8, !tbaa !21
  store i32 %3, ptr %8, align 4, !tbaa !30
  call void @llvm.lifetime.start.p0(i64 8, ptr %9) #3
  call void @llvm.lifetime.start.p0(i64 4, ptr %10) #3
  %13 = load ptr, ptr %6, align 8, !tbaa !8
  %14 = getelementptr inbounds nuw %struct.CMS_ContentInfo_st, ptr %13, i32 0, i32 0
  %15 = load ptr, ptr %14, align 8, !tbaa !31
  %16 = call i32 @OBJ_obj2nid(ptr noundef %15)
  store i32 %16, ptr %10, align 4, !tbaa !30
  call void @llvm.lifetime.start.p0(i64 4, ptr %11) #3
  %17 = load ptr, ptr %6, align 8, !tbaa !8
  %18 = call ptr @CMS_get0_eContentType(ptr noundef %17)
  %19 = call i32 @OBJ_obj2nid(ptr noundef %18)
  store i32 %19, ptr %11, align 4, !tbaa !30
  call void @llvm.lifetime.start.p0(i64 8, ptr %12) #3
  %20 = load ptr, ptr %6, align 8, !tbaa !8
  %21 = call ptr @ossl_cms_get0_cmsctx(ptr noundef %20)
  store ptr %21, ptr %12, align 8, !tbaa !25
  %22 = load i32, ptr %10, align 4, !tbaa !30
  %23 = icmp eq i32 %22, 22
  br i1 %23, label %24, label %30

24:                                               ; preds = %4
  %25 = load ptr, ptr %6, align 8, !tbaa !8
  %26 = getelementptr inbounds nuw %struct.CMS_ContentInfo_st, ptr %25, i32 0, i32 1
  %27 = load ptr, ptr %26, align 8, !tbaa !36
  %28 = getelementptr inbounds nuw %struct.CMS_SignedData_st, ptr %27, i32 0, i32 1
  %29 = load ptr, ptr %28, align 8, !tbaa !37
  store ptr %29, ptr %9, align 8, !tbaa !44
  br label %31

30:                                               ; preds = %4
  store ptr null, ptr %9, align 8, !tbaa !44
  br label %31

31:                                               ; preds = %30, %24
  %32 = load ptr, ptr %5, align 8, !tbaa !21
  %33 = load ptr, ptr %6, align 8, !tbaa !8
  %34 = load ptr, ptr %7, align 8, !tbaa !21
  %35 = load i32, ptr %8, align 4, !tbaa !30
  %36 = load i32, ptr %10, align 4, !tbaa !30
  %37 = load i32, ptr %11, align 4, !tbaa !30
  %38 = load ptr, ptr %9, align 8, !tbaa !44
  %39 = call ptr @CMS_ContentInfo_it()
  %40 = load ptr, ptr %12, align 8, !tbaa !25
  %41 = call ptr @ossl_cms_ctx_get0_libctx(ptr noundef %40)
  %42 = load ptr, ptr %12, align 8, !tbaa !25
  %43 = call ptr @ossl_cms_ctx_get0_propq(ptr noundef %42)
  %44 = call i32 @SMIME_write_ASN1_ex(ptr noundef %32, ptr noundef %33, ptr noundef %34, i32 noundef %35, i32 noundef %36, i32 noundef %37, ptr noundef %38, ptr noundef %39, ptr noundef %41, ptr noundef %43)
  call void @llvm.lifetime.end.p0(i64 8, ptr %12) #3
  call void @llvm.lifetime.end.p0(i64 4, ptr %11) #3
  call void @llvm.lifetime.end.p0(i64 4, ptr %10) #3
  call void @llvm.lifetime.end.p0(i64 8, ptr %9) #3
  ret i32 %44
}