; Function Attrs: nounwind uwtable
define i32 @SMIME_write_CMS(ptr noundef %0, ptr noundef %1, ptr noundef %2, i32 noundef %3) local_unnamed_addr #0 {
  %5 = load ptr, ptr %1, align 8, !tbaa !17
  %6 = tail call i32 @OBJ_obj2nid(ptr noundef %5) #2
  %7 = tail call ptr @CMS_get0_eContentType(ptr noundef nonnull %1) #2
  %8 = tail call i32 @OBJ_obj2nid(ptr noundef %7) #2
  %9 = tail call ptr @ossl_cms_get0_cmsctx(ptr noundef nonnull %1) #2
  %10 = icmp eq i32 %6, 22
  br i1 %10, label %11, label %16

11:                                               ; preds = %4
  %12 = getelementptr inbounds nuw i8, ptr %1, i64 8
  %13 = load ptr, ptr %12, align 8, !tbaa !22
  %14 = getelementptr inbounds nuw i8, ptr %13, i64 8
  %15 = load ptr, ptr %14, align 8, !tbaa !23
  br label %16

16:                                               ; preds = %4, %11
  %.0 = phi ptr [ %15, %11 ], [ null, %4 ]
  %17 = tail call ptr @CMS_ContentInfo_it() #2
  %18 = tail call ptr @ossl_cms_ctx_get0_libctx(ptr noundef %9) #2
  %19 = tail call ptr @ossl_cms_ctx_get0_propq(ptr noundef %9) #2
  %20 = tail call i32 @SMIME_write_ASN1_ex(ptr noundef %0, ptr noundef nonnull %1, ptr noundef %2, i32 noundef %3, i32 noundef %6, i32 noundef %8, ptr noundef %.0, ptr noundef %17, ptr noundef %18, ptr noundef %19) #2
  ret i32 %20
}